target datalayout = "e-m:e-p270:32:32-p271:32:32-p272:64:64-i64:64-i128:128-f80:128-n8:16:32:64-S128"
target triple = "x86_64-pc-linux-gnu"

%struct._zval_struct = type { %union._zend_value, %union.anon.9, %union.anon.12 }
%union._zend_value = type { i64 }
%union.anon.9 = type { i32 }
%union.anon.12 = type { i32 }
%struct._zend_refcounted_h = type { i32, %union.anon.0 }
%union.anon.0 = type { i32 }
%struct._dom_object = type { ptr, ptr, ptr, %struct._zend_object }
%struct._zend_object = type { %struct._zend_refcounted_h, i32, ptr, ptr, ptr, [1 x %struct._zval_struct] }
%struct._zend_string = type { %struct._zend_refcounted_h, i64, i64, [1 x i8] }
%struct._zend_reference = type { %struct._zend_refcounted_h, %struct._zval_struct, %union.zend_property_info_source_list }
%union.zend_property_info_source_list = type { ptr }

@.str.458 = private unnamed_addr constant [45 x i8] c"Cannot access DOMNamedNodeMap without offset\00", align 1
@.str.459 = private unnamed_addr constant [25 x i8] c"must be between 0 and %d\00", align 1

; Function Attrs: nounwind uwtable
define internal ptr @php_dom_obj_from_obj(ptr noundef %0) #0 {
  %2 = alloca ptr, align 8
  store ptr %0, ptr %2, align 8
  %3 = load ptr, ptr %2, align 8
  %4 = getelementptr inbounds i8, ptr %3, i64 -24
  ret ptr %4
}

; Function Attrs: nounwind uwtable
define internal zeroext i1 @dom_nodemap_or_nodelist_process_offset_as_named(ptr noundef %0, ptr noundef %1) #0 {
  %3 = alloca i8, align 1
  %4 = alloca ptr, align 8
  %5 = alloca i64, align 8
  %6 = alloca ptr, align 8
  %7 = alloca ptr, align 8
  %8 = alloca i8, align 1
  %9 = alloca ptr, align 8
  %10 = alloca ptr, align 8
  %11 = alloca ptr, align 8
  %12 = alloca ptr, align 8
  %13 = alloca i64, align 8
  %14 = alloca double, align 8
  %15 = alloca ptr, align 8
  %16 = alloca i64, align 8
  %17 = alloca ptr, align 8
  %18 = alloca ptr, align 8
  %19 = alloca i8, align 1
  %20 = alloca ptr, align 8
  %21 = alloca i1, align 1
  %22 = alloca ptr, align 8
  %23 = alloca ptr, align 8
  %24 = alloca double, align 8
  %25 = alloca i8, align 1
  store ptr %0, ptr %22, align 8
  store ptr %1, ptr %23, align 8
  %26 = load ptr, ptr %22, align 8
  store ptr %26, ptr %20, align 8
  %27 = load ptr, ptr %20, align 8
  %28 = getelementptr inbounds %struct._zval_struct, ptr %27, i32 0, i32 1
  %29 = load i8, ptr %28, align 8
  %30 = zext i8 %29 to i32
  %31 = icmp eq i32 %30, 6
  br i1 %31, label %32, label %102

32:                                               ; preds = %2
  %33 = load ptr, ptr %22, align 8
  %34 = getelementptr inbounds %struct._zval_struct, ptr %33, i32 0, i32 0
  %35 = load ptr, ptr %34, align 8
  %36 = getelementptr inbounds %struct._zend_string, ptr %35, i32 0, i32 3
  %37 = getelementptr inbounds [1 x i8], ptr %36, i64 0, i64 0
  %38 = load ptr, ptr %22, align 8
  %39 = getelementptr inbounds %struct._zval_struct, ptr %38, i32 0, i32 0
  %40 = load ptr, ptr %39, align 8
  %41 = getelementptr inbounds %struct._zend_string, ptr %40, i32 0, i32 2
  %42 = load i64, ptr %41, align 8
  %43 = load ptr, ptr %23, align 8
  store ptr %37, ptr %15, align 8
  store i64 %42, ptr %16, align 8
  store ptr %43, ptr %17, align 8
  store ptr %24, ptr %18, align 8
  store i8 1, ptr %19, align 1
  %44 = load ptr, ptr %15, align 8
  %45 = load i64, ptr %16, align 8
  %46 = load ptr, ptr %17, align 8
  %47 = load ptr, ptr %18, align 8
  %48 = load i8, ptr %19, align 1
  %49 = trunc i8 %48 to i1
  store ptr %44, ptr %4, align 8
  store i64 %45, ptr %5, align 8
  store ptr %46, ptr %6, align 8
  store ptr %47, ptr %7, align 8
  %50 = zext i1 %49 to i8
  store i8 %50, ptr %8, align 1
  store ptr null, ptr %9, align 8
  store ptr null, ptr %10, align 8
  %51 = load ptr, ptr %4, align 8
  %52 = load i8, ptr %51, align 1
  %53 = sext i8 %52 to i32
  %54 = icmp sgt i32 %53, 57
  br i1 %54, label %55, label %56

55:                                               ; preds = %32
  store i8 0, ptr %3, align 1
  br label %66

56:                                               ; preds = %32
  %57 = load ptr, ptr %4, align 8
  %58 = load i64, ptr %5, align 8
  %59 = load ptr, ptr %6, align 8
  %60 = load ptr, ptr %7, align 8
  %61 = load i8, ptr %8, align 1
  %62 = trunc i8 %61 to i1
  %63 = load ptr, ptr %9, align 8
  %64 = load ptr, ptr %10, align 8
  %65 = call zeroext i8 @_is_numeric_string_ex(ptr noundef %57, i64 noundef %58, ptr noundef %59, ptr noundef %60, i1 noundef zeroext %62, ptr noundef %63, ptr noundef %64) #12
  store i8 %65, ptr %3, align 1
  br label %66

66:                                               ; preds = %56, %55
  %67 = load i8, ptr %3, align 1
  store i8 %67, ptr %25, align 1
  %68 = zext i8 %67 to i32
  %69 = icmp eq i32 0, %68
  br i1 %69, label %70, label %71

70:                                               ; preds = %66
  store i1 true, ptr %21, align 1
  br label %120

71:                                               ; preds = %66
  %72 = load i8, ptr %25, align 1
  %73 = zext i8 %72 to i32
  %74 = icmp eq i32 %73, 5
  br i1 %74, label %75, label %100

75:                                               ; preds = %71
  %76 = load double, ptr %24, align 8
  store double %76, ptr %14, align 8
  %77 = load double, ptr %14, align 8
  %78 = call i1 @llvm.is.fpclass.f64(double %77, i32 504)
  %79 = xor i1 %78, true
  br i1 %79, label %83, label %80

80:                                               ; preds = %75
  %81 = load double, ptr %14, align 8
  %82 = call i1 @llvm.is.fpclass.f64(double %81, i32 3)
  br i1 %82, label %83, label %84

83:                                               ; preds = %80, %75
  store i64 0, ptr %13, align 8
  br label %97

84:                                               ; preds = %80
  %85 = load double, ptr %14, align 8
  %86 = fcmp oge double %85, 0x43E0000000000000
  br i1 %86, label %90, label %87

87:                                               ; preds = %84
  %88 = load double, ptr %14, align 8
  %89 = fcmp olt double %88, 0xC3E0000000000000
  br i1 %89, label %90, label %94

90:                                               ; preds = %87, %84
  %91 = load double, ptr %14, align 8
  %92 = fcmp ogt double %91, 0.000000e+00
  %93 = select i1 %92, i64 9223372036854775807, i64 -9223372036854775808
  store i64 %93, ptr %13, align 8
  br label %97

94:                                               ; preds = %87
  %95 = load double, ptr %14, align 8
  %96 = fptosi double %95 to i64
  store i64 %96, ptr %13, align 8
  br label %97

97:                                               ; preds = %94, %90, %83
  %98 = load i64, ptr %13, align 8
  %99 = load ptr, ptr %23, align 8
  store i64 %98, ptr %99, align 8
  br label %100

100:                                              ; preds = %97, %71
  br label %101

101:                                              ; preds = %100
  br label %119

102:                                              ; preds = %2
  %103 = load ptr, ptr %22, align 8
  store ptr %103, ptr %12, align 8
  %104 = load ptr, ptr %12, align 8
  store ptr %104, ptr %11, align 8
  %105 = load ptr, ptr %11, align 8
  %106 = getelementptr inbounds %struct._zval_struct, ptr %105, i32 0, i32 1
  %107 = load i8, ptr %106, align 8
  %108 = zext i8 %107 to i32
  %109 = icmp eq i32 %108, 4
  br i1 %109, label %110, label %113

110:                                              ; preds = %102
  %111 = load ptr, ptr %12, align 8
  %112 = load i64, ptr %111, align 8
  br label %116

113:                                              ; preds = %102
  %114 = load ptr, ptr %12, align 8
  %115 = call i64 @zval_get_long_func(ptr noundef %114, i1 noundef zeroext false) #12
  br label %116

116:                                              ; preds = %113, %110
  %117 = phi i64 [ %112, %110 ], [ %115, %113 ]
  %118 = load ptr, ptr %23, align 8
  store i64 %117, ptr %118, align 8
  br label %119

119:                                              ; preds = %116, %101
  store i1 false, ptr %21, align 1
  br label %120

120:                                              ; preds = %119, %70
  %121 = load i1, ptr %21, align 1
  ret i1 %121
}

; Function Attrs: nounwind uwtable
define internal ptr @dom_nodemap_read_dimension(ptr noundef %0, ptr noundef %1, i32 noundef %2, ptr noundef %3) #0 {
  %5 = alloca ptr, align 8
  %6 = alloca ptr, align 8
  %7 = alloca ptr, align 8
  %8 = alloca ptr, align 8
  %9 = alloca i32, align 4
  %10 = alloca ptr, align 8
  %11 = alloca i64, align 8
  store ptr %0, ptr %7, align 8
  store ptr %1, ptr %8, align 8
  store i32 %2, ptr %9, align 4
  store ptr %3, ptr %10, align 8
  %12 = load ptr, ptr %8, align 8
  %13 = icmp ne ptr %12, null
  %14 = xor i1 %13, true
  %15 = xor i1 %14, true
  %16 = xor i1 %15, true
  %17 = zext i1 %16 to i32
  %18 = sext i32 %17 to i64
  %19 = icmp ne i64 %18, 0
  br i1 %19, label %20, label %21

20:                                               ; preds = %4
  call void (ptr, ptr, ...) @zend_throw_error(ptr noundef null, ptr noundef @.str.458)
  store ptr null, ptr %6, align 8
  br label %82

21:                                               ; preds = %4
  br label %22

22:                                               ; preds = %21
  %23 = load ptr, ptr %8, align 8
  store ptr %23, ptr %5, align 8
  %24 = load ptr, ptr %5, align 8
  %25 = getelementptr inbounds %struct._zval_struct, ptr %24, i32 0, i32 1
  %26 = load i8, ptr %25, align 8
  %27 = zext i8 %26 to i32
  %28 = icmp eq i32 %27, 10
  %29 = xor i1 %28, true
  %30 = xor i1 %29, true
  %31 = zext i1 %30 to i32
  %32 = sext i32 %31 to i64
  %33 = icmp ne i64 %32, 0
  br i1 %33, label %34, label %39

34:                                               ; preds = %22
  %35 = load ptr, ptr %8, align 8
  %36 = getelementptr inbounds %struct._zval_struct, ptr %35, i32 0, i32 0
  %37 = load ptr, ptr %36, align 8
  %38 = getelementptr inbounds %struct._zend_reference, ptr %37, i32 0, i32 1
  store ptr %38, ptr %8, align 8
  br label %39

39:                                               ; preds = %34, %22
  br label %40

40:                                               ; preds = %39
  %41 = load ptr, ptr %8, align 8
  %42 = call zeroext i1 @dom_nodemap_or_nodelist_process_offset_as_named(ptr noundef %41, ptr noundef %11)
  br i1 %42, label %43, label %55

43:                                               ; preds = %40
  %44 = load ptr, ptr %7, align 8
  %45 = call ptr @php_dom_obj_from_obj(ptr noundef %44)
  %46 = getelementptr inbounds %struct._dom_object, ptr %45, i32 0, i32 0
  %47 = load ptr, ptr %46, align 8
  %48 = load ptr, ptr %8, align 8
  %49 = getelementptr inbounds %struct._zval_struct, ptr %48, i32 0, i32 0
  %50 = load ptr, ptr %49, align 8
  %51 = getelementptr inbounds %struct._zend_string, ptr %50, i32 0, i32 3
  %52 = getelementptr inbounds [1 x i8], ptr %51, i64 0, i64 0
  %53 = load ptr, ptr %10, align 8
  call void @php_dom_named_node_map_get_named_item_into_zval(ptr noundef %47, ptr noundef %52, ptr noundef %53)
  %54 = load ptr, ptr %10, align 8
  store ptr %54, ptr %6, align 8
  br label %82

55:                                               ; preds = %40
  %56 = load i64, ptr %11, align 8
  %57 = icmp slt i64 %56, 0
  br i1 %57, label %66, label %58

58:                                               ; preds = %55
  %59 = load i64, ptr %11, align 8
  %60 = icmp sgt i64 %59, 2147483647
  %61 = xor i1 %60, true
  %62 = xor i1 %61, true
  %63 = zext i1 %62 to i32
  %64 = sext i32 %63 to i64
  %65 = icmp ne i64 %64, 0
  br label %66

66:                                               ; preds = %58, %55
  %67 = phi i1 [ true, %55 ], [ %65, %58 ]
  %68 = xor i1 %67, true
  %69 = xor i1 %68, true
  %70 = zext i1 %69 to i32
  %71 = sext i32 %70 to i64
  %72 = icmp ne i64 %71, 0
  br i1 %72, label %73, label %74

73:                                               ; preds = %66
  call void (ptr, ...) @zend_value_error(ptr noundef @.str.459, i32 noundef 2147483647)
  store ptr null, ptr %6, align 8
  br label %82

74:                                               ; preds = %66
  %75 = load ptr, ptr %7, align 8
  %76 = call ptr @php_dom_obj_from_obj(ptr noundef %75)
  %77 = getelementptr inbounds %struct._dom_object, ptr %76, i32 0, i32 0
  %78 = load ptr, ptr %77, align 8
  %79 = load i64, ptr %11, align 8
  %80 = load ptr, ptr %10, align 8
  call void @php_dom_named_node_map_get_item_into_zval(ptr noundef %78, i64 noundef %79, ptr noundef %80)
  %81 = load ptr, ptr %10, align 8
  store ptr %81, ptr %6, align 8
  br label %82

82:                                               ; preds = %74, %73, %43, %20
  %83 = load ptr, ptr %6, align 8
  ret ptr %83
}