; Function Attrs: nounwind uwtable
define internal noundef ptr @dom_nodemap_read_dimension(ptr nocapture noundef readonly %0, ptr noundef %1, i32 %2, ptr noundef %3) #1 {
  %5 = alloca double, align 8
  %6 = alloca i64, align 8
  %.not = icmp eq ptr %1, null
  br i1 %.not, label %7, label %8

7:                                                ; preds = %4
  tail call void (ptr, ptr, ...) @zend_throw_error(ptr noundef null, ptr noundef nonnull @.str.458) #16
  br label %52

8:                                                ; preds = %4
  %9 = getelementptr inbounds i8, ptr %1, i64 8
  %10 = load i8, ptr %9, align 8
  %11 = icmp eq i8 %10, 10
  br i1 %11, label %12, label %15

12:                                               ; preds = %8
  %13 = load ptr, ptr %1, align 8
  %14 = getelementptr inbounds i8, ptr %13, i64 8
  %.phi.trans.insert = getelementptr inbounds i8, ptr %13, i64 16
  %.pre = load i8, ptr %.phi.trans.insert, align 8
  br label %15

15:                                               ; preds = %8, %12
  %16 = phi i8 [ %.pre, %12 ], [ %10, %8 ]
  %.013 = phi ptr [ %14, %12 ], [ %1, %8 ]
  call void @llvm.lifetime.start.p0(i64 8, ptr nonnull %5)
  switch i8 %16, label %39 [
    i8 6, label %17
    i8 4, label %37
  ]

17:                                               ; preds = %15
  %18 = load ptr, ptr %.013, align 8
  %19 = getelementptr inbounds i8, ptr %18, i64 24
  %20 = load i8, ptr %19, align 1
  %21 = icmp sgt i8 %20, 57
  br i1 %21, label %41, label %22

22:                                               ; preds = %17
  %23 = getelementptr inbounds i8, ptr %18, i64 16
  %24 = load i64, ptr %23, align 8
  %25 = call zeroext i8 @_is_numeric_string_ex(ptr noundef nonnull %19, i64 noundef %24, ptr noundef nonnull %6, ptr noundef nonnull %5, i1 noundef zeroext true, ptr noundef null, ptr noundef null) #16
  switch i8 %25, label %._crit_edge17 [
    i8 0, label %._crit_edge
    i8 5, label %26
  ]

._crit_edge17:                                    ; preds = %22
  %.pre18 = load i64, ptr %6, align 8
  br label %46

._crit_edge:                                      ; preds = %22
  %.pre16 = load ptr, ptr %.013, align 8
  br label %41

26:                                               ; preds = %22
  %27 = load double, ptr %5, align 8
  %28 = call double @llvm.fabs.f64(double %27)
  %or.cond40.i = fcmp ueq double %28, 0x7FF0000000000000
  br i1 %or.cond40.i, label %.sink.split.i, label %29

29:                                               ; preds = %26
  %30 = fcmp oge double %27, 0x43E0000000000000
  %31 = fcmp olt double %27, 0xC3E0000000000000
  %or.cond.i = or i1 %30, %31
  br i1 %or.cond.i, label %32, label %35

32:                                               ; preds = %29
  %33 = fcmp ogt double %27, 0.000000e+00
  %34 = select i1 %33, i64 9223372036854775807, i64 -9223372036854775808
  br label %.sink.split.i

35:                                               ; preds = %29
  %36 = fptosi double %27 to i64
  br label %.sink.split.i

37:                                               ; preds = %15
  %38 = load i64, ptr %.013, align 8
  br label %.sink.split.i

39:                                               ; preds = %15
  %40 = tail call i64 @zval_get_long_func(ptr noundef nonnull %.013, i1 noundef zeroext false) #16
  br label %.sink.split.i

.sink.split.i:                                    ; preds = %39, %37, %35, %32, %26
  %.035.sink.i = phi i64 [ %34, %32 ], [ %36, %35 ], [ 0, %26 ], [ %38, %37 ], [ %40, %39 ]
  store i64 %.035.sink.i, ptr %6, align 8
  br label %46

41:                                               ; preds = %._crit_edge, %17
  %42 = phi ptr [ %.pre16, %._crit_edge ], [ %18, %17 ]
  call void @llvm.lifetime.end.p0(i64 8, ptr nonnull %5)
  %43 = getelementptr inbounds i8, ptr %0, i64 -24
  %44 = load ptr, ptr %43, align 8
  %45 = getelementptr inbounds i8, ptr %42, i64 24
  call void @php_dom_named_node_map_get_named_item_into_zval(ptr noundef %44, ptr noundef nonnull %45, ptr noundef %3) #16
  br label %52

46:                                               ; preds = %._crit_edge17, %.sink.split.i
  %47 = phi i64 [ %.pre18, %._crit_edge17 ], [ %.035.sink.i, %.sink.split.i ]
  call void @llvm.lifetime.end.p0(i64 8, ptr nonnull %5)
  %spec.select = icmp ugt i64 %47, 2147483647
  br i1 %spec.select, label %48, label %49

48:                                               ; preds = %46
  call void (ptr, ...) @zend_value_error(ptr noundef nonnull @.str.459, i32 noundef 2147483647) #16
  br label %52

49:                                               ; preds = %46
  %50 = getelementptr inbounds i8, ptr %0, i64 -24
  %51 = load ptr, ptr %50, align 8
  call void @php_dom_named_node_map_get_item_into_zval(ptr noundef %51, i64 noundef %47, ptr noundef %3) #16
  br label %52

52:                                               ; preds = %49, %48, %41, %7
  %.0 = phi ptr [ null, %7 ], [ %3, %41 ], [ null, %48 ], [ %3, %49 ]
  ret ptr %.0
}